
BFMC_BNO055_401.elf:     file format elf32-littlearm

Sections:
Idx Name          Size      VMA       LMA       File off  Algn
  0 .isr_vector   00000194  08000000  08000000  00001000  2**0
                  CONTENTS, ALLOC, LOAD, READONLY, DATA
  1 .text         00000c54  08000194  08000194  00001194  2**2
                  CONTENTS, ALLOC, LOAD, READONLY, CODE
  2 .rodata       00000058  08000de8  08000de8  00001de8  2**2
                  CONTENTS, ALLOC, LOAD, READONLY, DATA
  3 .ARM.extab    00000000  08000e40  08000e40  0000200c  2**0
                  CONTENTS, READONLY
  4 .ARM          00000000  08000e40  08000e40  0000200c  2**0
                  CONTENTS, READONLY
  5 .preinit_array 00000000  08000e40  08000e40  0000200c  2**0
                  CONTENTS, ALLOC, LOAD, DATA
  6 .init_array   00000004  08000e40  08000e40  00001e40  2**2
                  CONTENTS, ALLOC, LOAD, READONLY, DATA
  7 .fini_array   00000004  08000e44  08000e44  00001e44  2**2
                  CONTENTS, ALLOC, LOAD, READONLY, DATA
  8 .data         0000000c  20000000  08000e48  00002000  2**2
                  CONTENTS, ALLOC, LOAD, DATA
  9 .bss          00000020  2000000c  08000e54  0000200c  2**2
                  ALLOC
 10 ._user_heap_stack 00000604  2000002c  08000e54  0000202c  2**0
                  ALLOC
 11 .ARM.attributes 00000030  00000000  00000000  0000200c  2**0
                  CONTENTS, READONLY
 12 .debug_info   000027ce  00000000  00000000  0000203c  2**0
                  CONTENTS, READONLY, DEBUGGING, OCTETS
 13 .debug_abbrev 00000a9f  00000000  00000000  0000480a  2**0
                  CONTENTS, READONLY, DEBUGGING, OCTETS
 14 .debug_aranges 00000388  00000000  00000000  000052b0  2**3
                  CONTENTS, READONLY, DEBUGGING, OCTETS
 15 .debug_rnglists 0000028f  00000000  00000000  00005638  2**0
                  CONTENTS, READONLY, DEBUGGING, OCTETS
 16 .debug_macro  000149f4  00000000  00000000  000058c7  2**0
                  CONTENTS, READONLY, DEBUGGING, OCTETS
 17 .debug_line   00003bc3  00000000  00000000  0001a2bb  2**0
                  CONTENTS, READONLY, DEBUGGING, OCTETS
 18 .debug_str    0008226e  00000000  00000000  0001de7e  2**0
                  CONTENTS, READONLY, DEBUGGING, OCTETS
 19 .comment      00000086  00000000  00000000  000a00ec  2**0
                  CONTENTS, READONLY
 20 .debug_frame  00000c98  00000000  00000000  000a0174  2**2
                  CONTENTS, READONLY, DEBUGGING, OCTETS
 21 .debug_line_str 00000069  00000000  00000000  000a0e0c  2**0
                  CONTENTS, READONLY, DEBUGGING, OCTETS

Disassembly of section .text:

08000194 <__do_global_dtors_aux>:
 8000194:	b510      	push	{r4, lr}
 8000196:	4c05      	ldr	r4, [pc, #20]	@ (80001ac <__do_global_dtors_aux+0x18>)
 8000198:	7823      	ldrb	r3, [r4, #0]
 800019a:	b933      	cbnz	r3, 80001aa <__do_global_dtors_aux+0x16>
 800019c:	4b04      	ldr	r3, [pc, #16]	@ (80001b0 <__do_global_dtors_aux+0x1c>)
 800019e:	b113      	cbz	r3, 80001a6 <__do_global_dtors_aux+0x12>
 80001a0:	4804      	ldr	r0, [pc, #16]	@ (80001b4 <__do_global_dtors_aux+0x20>)
 80001a2:	f3af 8000 	nop.w
 80001a6:	2301      	movs	r3, #1
 80001a8:	7023      	strb	r3, [r4, #0]
 80001aa:	bd10      	pop	{r4, pc}
 80001ac:	2000000c 	.word	0x2000000c
 80001b0:	00000000 	.word	0x00000000
 80001b4:	08000dd0 	.word	0x08000dd0

080001b8 <frame_dummy>:
 80001b8:	b508      	push	{r3, lr}
 80001ba:	4b03      	ldr	r3, [pc, #12]	@ (80001c8 <frame_dummy+0x10>)
 80001bc:	b11b      	cbz	r3, 80001c6 <frame_dummy+0xe>
 80001be:	4903      	ldr	r1, [pc, #12]	@ (80001cc <frame_dummy+0x14>)
 80001c0:	4803      	ldr	r0, [pc, #12]	@ (80001d0 <frame_dummy+0x18>)
 80001c2:	f3af 8000 	nop.w
 80001c6:	bd08      	pop	{r3, pc}
 80001c8:	00000000 	.word	0x00000000
 80001cc:	20000010 	.word	0x20000010
 80001d0:	08000dd0 	.word	0x08000dd0

080001d4 <UART_init>:
#define PWR_MODE_SUSPEND     0x02

#define BNO055_CHIP_ID_VAL   0xA0

void UART_init(void)
{
 80001d4:	b480      	push	{r7}
 80001d6:	b087      	sub	sp, #28
 80001d8:	af00      	add	r7, sp, #0
    /* ===== Enable clocks ===== */
    uint32_t* RCC_AHB1ENR = (uint32_t*)(RCC_BASE_ADDR + 0x30);
 80001da:	4b3c      	ldr	r3, [pc, #240]	@ (80002cc <UART_init+0xf8>)
 80001dc:	617b      	str	r3, [r7, #20]
    uint32_t* RCC_APB2ENR = (uint32_t*)(RCC_BASE_ADDR + 0x44);
 80001de:	4b3c      	ldr	r3, [pc, #240]	@ (80002d0 <UART_init+0xfc>)
 80001e0:	613b      	str	r3, [r7, #16]

    *RCC_AHB1ENR |= (1 << 0);    // GPIOA clock
 80001e2:	697b      	ldr	r3, [r7, #20]
 80001e4:	681b      	ldr	r3, [r3, #0]
 80001e6:	f043 0201 	orr.w	r2, r3, #1
 80001ea:	697b      	ldr	r3, [r7, #20]
 80001ec:	601a      	str	r2, [r3, #0]
    *RCC_APB2ENR |= (1 << 4);    // USART1 clock
 80001ee:	693b      	ldr	r3, [r7, #16]
 80001f0:	681b      	ldr	r3, [r3, #0]
 80001f2:	f043 0210 	orr.w	r2, r3, #16
 80001f6:	693b      	ldr	r3, [r7, #16]
 80001f8:	601a      	str	r2, [r3, #0]

    /* ===== GPIO PA9, PA10 alternate function ===== */
    uint32_t* GPIOA_MODER = (uint32_t*)(GPIOA_BASE_ADDR + 0x00);
 80001fa:	4b36      	ldr	r3, [pc, #216]	@ (80002d4 <UART_init+0x100>)
 80001fc:	60fb      	str	r3, [r7, #12]
    uint32_t* GPIOA_AFRH  = (uint32_t*)(GPIOA_BASE_ADDR + 0x24);
 80001fe:	4b36      	ldr	r3, [pc, #216]	@ (80002d8 <UART_init+0x104>)
 8000200:	60bb      	str	r3, [r7, #8]

    /* PA9 -> USART1_TX (AF7) */
    *GPIOA_MODER &= ~(0b11 << (9 * 2));
 8000202:	68fb      	ldr	r3, [r7, #12]
 8000204:	681b      	ldr	r3, [r3, #0]
 8000206:	f423 2240 	bic.w	r2, r3, #786432	@ 0xc0000
 800020a:	68fb      	ldr	r3, [r7, #12]
 800020c:	601a      	str	r2, [r3, #0]
    *GPIOA_MODER |=  (0b10 << (9 * 2));
 800020e:	68fb      	ldr	r3, [r7, #12]
 8000210:	681b      	ldr	r3, [r3, #0]
 8000212:	f443 2200 	orr.w	r2, r3, #524288	@ 0x80000
 8000216:	68fb      	ldr	r3, [r7, #12]
 8000218:	601a      	str	r2, [r3, #0]
    *GPIOA_AFRH  &= ~(0xF << ((9 - 8) * 4));
 800021a:	68bb      	ldr	r3, [r7, #8]
 800021c:	681b      	ldr	r3, [r3, #0]
 800021e:	f023 02f0 	bic.w	r2, r3, #240	@ 0xf0
 8000222:	68bb      	ldr	r3, [r7, #8]
 8000224:	601a      	str	r2, [r3, #0]
    *GPIOA_AFRH  |=  (0x7 << ((9 - 8) * 4));
 8000226:	68bb      	ldr	r3, [r7, #8]
 8000228:	681b      	ldr	r3, [r3, #0]
 800022a:	f043 0270 	orr.w	r2, r3, #112	@ 0x70
 800022e:	68bb      	ldr	r3, [r7, #8]
 8000230:	601a      	str	r2, [r3, #0]

    /* PA10 -> USART1_RX (AF7) */
    *GPIOA_MODER &= ~(0b11 << (10 * 2));
 8000232:	68fb      	ldr	r3, [r7, #12]
 8000234:	681b      	ldr	r3, [r3, #0]
 8000236:	f423 1240 	bic.w	r2, r3, #3145728	@ 0x300000
 800023a:	68fb      	ldr	r3, [r7, #12]
 800023c:	601a      	str	r2, [r3, #0]
    *GPIOA_MODER |=  (0b10 << (10 * 2));
 800023e:	68fb      	ldr	r3, [r7, #12]
 8000240:	681b      	ldr	r3, [r3, #0]
 8000242:	f443 1200 	orr.w	r2, r3, #2097152	@ 0x200000
 8000246:	68fb      	ldr	r3, [r7, #12]
 8000248:	601a      	str	r2, [r3, #0]
    *GPIOA_AFRH  &= ~(0xF << ((10 - 8) * 4));
 800024a:	68bb      	ldr	r3, [r7, #8]
 800024c:	681b      	ldr	r3, [r3, #0]
 800024e:	f423 6270 	bic.w	r2, r3, #3840	@ 0xf00
 8000252:	68bb      	ldr	r3, [r7, #8]
 8000254:	601a      	str	r2, [r3, #0]
    *GPIOA_AFRH  |=  (0x7 << ((10 - 8) * 4));
 8000256:	68bb      	ldr	r3, [r7, #8]
 8000258:	681b      	ldr	r3, [r3, #0]
 800025a:	f443 62e0 	orr.w	r2, r3, #1792	@ 0x700
 800025e:	68bb      	ldr	r3, [r7, #8]
 8000260:	601a      	str	r2, [r3, #0]

    /* ===== USART1 configuration ===== */
    uint32_t* USART1_BRR = (uint32_t*)(USART1_BASE_ADDR + 0x08);
 8000262:	4b1e      	ldr	r3, [pc, #120]	@ (80002dc <UART_init+0x108>)
 8000264:	607b      	str	r3, [r7, #4]
    uint32_t* USART1_CR1 = (uint32_t*)(USART1_BASE_ADDR + 0x0C);
 8000266:	4b1e      	ldr	r3, [pc, #120]	@ (80002e0 <UART_init+0x10c>)
 8000268:	603b      	str	r3, [r7, #0]

    /* Baudrate = 9600, PCLK2 = 16 MHz
       USARTDIV = 16MHz / (16 * 9600) = 104.166 */
    *USART1_BRR = (104 << 4) | (3 << 0);
 800026a:	687b      	ldr	r3, [r7, #4]
 800026c:	f240 6283 	movw	r2, #1667	@ 0x683
 8000270:	601a      	str	r2, [r3, #0]

    *USART1_CR1 = 0;
 8000272:	683b      	ldr	r3, [r7, #0]
 8000274:	2200      	movs	r2, #0
 8000276:	601a      	str	r2, [r3, #0]
    *USART1_CR1 &= ~(1 << 15);   // Oversampling 16
 8000278:	683b      	ldr	r3, [r7, #0]
 800027a:	681b      	ldr	r3, [r3, #0]
 800027c:	f423 4200 	bic.w	r2, r3, #32768	@ 0x8000
 8000280:	683b      	ldr	r3, [r7, #0]
 8000282:	601a      	str	r2, [r3, #0]
    *USART1_CR1 &= ~(1 << 12);   // 8-bit data
 8000284:	683b      	ldr	r3, [r7, #0]
 8000286:	681b      	ldr	r3, [r3, #0]
 8000288:	f423 5280 	bic.w	r2, r3, #4096	@ 0x1000
 800028c:	683b      	ldr	r3, [r7, #0]
 800028e:	601a      	str	r2, [r3, #0]
    *USART1_CR1 &= ~(1 << 10);   // No parity
 8000290:	683b      	ldr	r3, [r7, #0]
 8000292:	681b      	ldr	r3, [r3, #0]
 8000294:	f423 6280 	bic.w	r2, r3, #1024	@ 0x400
 8000298:	683b      	ldr	r3, [r7, #0]
 800029a:	601a      	str	r2, [r3, #0]
    *USART1_CR1 |=  (1 << 2);    // RE
 800029c:	683b      	ldr	r3, [r7, #0]
 800029e:	681b      	ldr	r3, [r3, #0]
 80002a0:	f043 0204 	orr.w	r2, r3, #4
 80002a4:	683b      	ldr	r3, [r7, #0]
 80002a6:	601a      	str	r2, [r3, #0]
    *USART1_CR1 |=  (1 << 3);    // TE
 80002a8:	683b      	ldr	r3, [r7, #0]
 80002aa:	681b      	ldr	r3, [r3, #0]
 80002ac:	f043 0208 	orr.w	r2, r3, #8
 80002b0:	683b      	ldr	r3, [r7, #0]
 80002b2:	601a      	str	r2, [r3, #0]
    *USART1_CR1 |=  (1 << 13);   // UE
 80002b4:	683b      	ldr	r3, [r7, #0]
 80002b6:	681b      	ldr	r3, [r3, #0]
 80002b8:	f443 5200 	orr.w	r2, r3, #8192	@ 0x2000
 80002bc:	683b      	ldr	r3, [r7, #0]
 80002be:	601a      	str	r2, [r3, #0]
}
 80002c0:	bf00      	nop
 80002c2:	371c      	adds	r7, #28
 80002c4:	46bd      	mov	sp, r7
 80002c6:	f85d 7b04 	ldr.w	r7, [sp], #4
 80002ca:	4770      	bx	lr
 80002cc:	40023830 	.word	0x40023830
 80002d0:	40023844 	.word	0x40023844
 80002d4:	40020000 	.word	0x40020000
 80002d8:	40020024 	.word	0x40020024
 80002dc:	40011008 	.word	0x40011008
 80002e0:	4001100c 	.word	0x4001100c

080002e4 <UART_Transmit>:


void UART_Transmit(uint8_t data)
{
 80002e4:	b480      	push	{r7}
 80002e6:	b085      	sub	sp, #20
 80002e8:	af00      	add	r7, sp, #0
 80002ea:	4603      	mov	r3, r0
 80002ec:	71fb      	strb	r3, [r7, #7]
    uint32_t* USART_DR= (uint32_t*)(USART1_BASE_ADDR + 0x04);
 80002ee:	4b0f      	ldr	r3, [pc, #60]	@ (800032c <UART_Transmit+0x48>)
 80002f0:	60fb      	str	r3, [r7, #12]
    uint32_t* USART_SR= (uint32_t*)(USART1_BASE_ADDR + 0x00);
 80002f2:	4b0f      	ldr	r3, [pc, #60]	@ (8000330 <UART_Transmit+0x4c>)
 80002f4:	60bb      	str	r3, [r7, #8]
    while(((*USART_SR >> 7) & 1) == 0); // TXE
 80002f6:	bf00      	nop
 80002f8:	68bb      	ldr	r3, [r7, #8]
 80002fa:	681b      	ldr	r3, [r3, #0]
 80002fc:	09db      	lsrs	r3, r3, #7
 80002fe:	f003 0301 	and.w	r3, r3, #1
 8000302:	2b00      	cmp	r3, #0
 8000304:	d0f8      	beq.n	80002f8 <UART_Transmit+0x14>
    *USART_DR = data;
 8000306:	79fa      	ldrb	r2, [r7, #7]
 8000308:	68fb      	ldr	r3, [r7, #12]
 800030a:	601a      	str	r2, [r3, #0]
    while(((*USART_SR >> 6) & 1) == 0); // TC
 800030c:	bf00      	nop
 800030e:	68bb      	ldr	r3, [r7, #8]
 8000310:	681b      	ldr	r3, [r3, #0]
 8000312:	099b      	lsrs	r3, r3, #6
 8000314:	f003 0301 	and.w	r3, r3, #1
 8000318:	2b00      	cmp	r3, #0
 800031a:	d0f8      	beq.n	800030e <UART_Transmit+0x2a>
}
 800031c:	bf00      	nop
 800031e:	bf00      	nop
 8000320:	3714      	adds	r7, #20
 8000322:	46bd      	mov	sp, r7
 8000324:	f85d 7b04 	ldr.w	r7, [sp], #4
 8000328:	4770      	bx	lr
 800032a:	bf00      	nop
 800032c:	40011004 	.word	0x40011004
 8000330:	40011000 	.word	0x40011000

08000334 <UART_send_number>:

void UART_send_number(int num)
{
 8000334:	b580      	push	{r7, lr}
 8000336:	b086      	sub	sp, #24
 8000338:	af00      	add	r7, sp, #0
 800033a:	6078      	str	r0, [r7, #4]
    char buf[12]; int i = 0;
 800033c:	2300      	movs	r3, #0
 800033e:	617b      	str	r3, [r7, #20]
    if (num == 0) { UART_Transmit('0'); return; }
 8000340:	687b      	ldr	r3, [r7, #4]
 8000342:	2b00      	cmp	r3, #0
 8000344:	d103      	bne.n	800034e <UART_send_number+0x1a>
 8000346:	2030      	movs	r0, #48	@ 0x30
 8000348:	f7ff ffcc 	bl	80002e4 <UART_Transmit>
 800034c:	e038      	b.n	80003c0 <UART_send_number+0x8c>
    if (num < 0) { UART_Transmit('-'); num = -num; }
 800034e:	687b      	ldr	r3, [r7, #4]
 8000350:	2b00      	cmp	r3, #0
 8000352:	da24      	bge.n	800039e <UART_send_number+0x6a>
 8000354:	202d      	movs	r0, #45	@ 0x2d
 8000356:	f7ff ffc5 	bl	80002e4 <UART_Transmit>
 800035a:	687b      	ldr	r3, [r7, #4]
 800035c:	425b      	negs	r3, r3
 800035e:	607b      	str	r3, [r7, #4]
    while (num > 0) { buf[i++] = (num%10)+'0'; num/=10; }
 8000360:	e01d      	b.n	800039e <UART_send_number+0x6a>
 8000362:	687a      	ldr	r2, [r7, #4]
 8000364:	4b18      	ldr	r3, [pc, #96]	@ (80003c8 <UART_send_number+0x94>)
 8000366:	fb83 1302 	smull	r1, r3, r3, r2
 800036a:	1099      	asrs	r1, r3, #2
 800036c:	17d3      	asrs	r3, r2, #31
 800036e:	1ac9      	subs	r1, r1, r3
 8000370:	460b      	mov	r3, r1
 8000372:	009b      	lsls	r3, r3, #2
 8000374:	440b      	add	r3, r1
 8000376:	005b      	lsls	r3, r3, #1
 8000378:	1ad1      	subs	r1, r2, r3
 800037a:	b2ca      	uxtb	r2, r1
 800037c:	697b      	ldr	r3, [r7, #20]
 800037e:	1c59      	adds	r1, r3, #1
 8000380:	6179      	str	r1, [r7, #20]
 8000382:	3230      	adds	r2, #48	@ 0x30
 8000384:	b2d2      	uxtb	r2, r2
 8000386:	3318      	adds	r3, #24
 8000388:	443b      	add	r3, r7
 800038a:	f803 2c10 	strb.w	r2, [r3, #-16]
 800038e:	687b      	ldr	r3, [r7, #4]
 8000390:	4a0d      	ldr	r2, [pc, #52]	@ (80003c8 <UART_send_number+0x94>)
 8000392:	fb82 1203 	smull	r1, r2, r2, r3
 8000396:	1092      	asrs	r2, r2, #2
 8000398:	17db      	asrs	r3, r3, #31
 800039a:	1ad3      	subs	r3, r2, r3
 800039c:	607b      	str	r3, [r7, #4]
 800039e:	687b      	ldr	r3, [r7, #4]
 80003a0:	2b00      	cmp	r3, #0
 80003a2:	dcde      	bgt.n	8000362 <UART_send_number+0x2e>
    while (i--) UART_Transmit(buf[i]);
 80003a4:	e007      	b.n	80003b6 <UART_send_number+0x82>
 80003a6:	f107 0208 	add.w	r2, r7, #8
 80003aa:	697b      	ldr	r3, [r7, #20]
 80003ac:	4413      	add	r3, r2
 80003ae:	781b      	ldrb	r3, [r3, #0]
 80003b0:	4618      	mov	r0, r3
 80003b2:	f7ff ff97 	bl	80002e4 <UART_Transmit>
 80003b6:	697b      	ldr	r3, [r7, #20]
 80003b8:	1e5a      	subs	r2, r3, #1
 80003ba:	617a      	str	r2, [r7, #20]
 80003bc:	2b00      	cmp	r3, #0
 80003be:	d1f2      	bne.n	80003a6 <UART_send_number+0x72>
}
 80003c0:	3718      	adds	r7, #24
 80003c2:	46bd      	mov	sp, r7
 80003c4:	bd80      	pop	{r7, pc}
 80003c6:	bf00      	nop
 80003c8:	66666667 	.word	0x66666667

080003cc <UART_print_log>:
void UART_print_log(char *m)
{
 80003cc:	b580      	push	{r7, lr}
 80003ce:	b084      	sub	sp, #16
 80003d0:	af00      	add	r7, sp, #0
 80003d2:	6078      	str	r0, [r7, #4]
    for (int i = 0; m[i]; i++) UART_Transmit((uint8_t)m[i]);
 80003d4:	2300      	movs	r3, #0
 80003d6:	60fb      	str	r3, [r7, #12]
 80003d8:	e009      	b.n	80003ee <UART_print_log+0x22>
 80003da:	68fb      	ldr	r3, [r7, #12]
 80003dc:	687a      	ldr	r2, [r7, #4]
 80003de:	4413      	add	r3, r2
 80003e0:	781b      	ldrb	r3, [r3, #0]
 80003e2:	4618      	mov	r0, r3
 80003e4:	f7ff ff7e 	bl	80002e4 <UART_Transmit>
 80003e8:	68fb      	ldr	r3, [r7, #12]
 80003ea:	3301      	adds	r3, #1
 80003ec:	60fb      	str	r3, [r7, #12]
 80003ee:	68fb      	ldr	r3, [r7, #12]
 80003f0:	687a      	ldr	r2, [r7, #4]
 80003f2:	4413      	add	r3, r2
 80003f4:	781b      	ldrb	r3, [r3, #0]
 80003f6:	2b00      	cmp	r3, #0
 80003f8:	d1ef      	bne.n	80003da <UART_print_log+0xe>
}
 80003fa:	bf00      	nop
 80003fc:	bf00      	nop
 80003fe:	3710      	adds	r7, #16
 8000400:	46bd      	mov	sp, r7
 8000402:	bd80      	pop	{r7, pc}

08000404 <UART_send_float>:
void UART_send_float(float v)
{
 8000404:	b580      	push	{r7, lr}
 8000406:	b084      	sub	sp, #16
 8000408:	af00      	add	r7, sp, #0
 800040a:	ed87 0a01 	vstr	s0, [r7, #4]
    if (v < 0) { UART_Transmit('-'); v = -v; }
 800040e:	edd7 7a01 	vldr	s15, [r7, #4]
 8000412:	eef5 7ac0 	vcmpe.f32	s15, #0.0
 8000416:	eef1 fa10 	vmrs	APSR_nzcv, fpscr
 800041a:	d508      	bpl.n	800042e <UART_send_float+0x2a>
 800041c:	202d      	movs	r0, #45	@ 0x2d
 800041e:	f7ff ff61 	bl	80002e4 <UART_Transmit>
 8000422:	edd7 7a01 	vldr	s15, [r7, #4]
 8000426:	eef1 7a67 	vneg.f32	s15, s15
 800042a:	edc7 7a01 	vstr	s15, [r7, #4]
    int ip = (int)v;
 800042e:	edd7 7a01 	vldr	s15, [r7, #4]
 8000432:	eefd 7ae7 	vcvt.s32.f32	s15, s15
 8000436:	ee17 3a90 	vmov	r3, s15
 800043a:	60fb      	str	r3, [r7, #12]
    int fp = (int)((v - ip) * 100);
 800043c:	68fb      	ldr	r3, [r7, #12]
 800043e:	ee07 3a90 	vmov	s15, r3
 8000442:	eef8 7ae7 	vcvt.f32.s32	s15, s15
 8000446:	ed97 7a01 	vldr	s14, [r7, #4]
 800044a:	ee77 7a67 	vsub.f32	s15, s14, s15
 800044e:	ed9f 7a0e 	vldr	s14, [pc, #56]	@ 8000488 <UART_send_float+0x84>
 8000452:	ee67 7a87 	vmul.f32	s15, s15, s14
 8000456:	eefd 7ae7 	vcvt.s32.f32	s15, s15
 800045a:	ee17 3a90 	vmov	r3, s15
 800045e:	60bb      	str	r3, [r7, #8]
    UART_send_number(ip); UART_Transmit('.');
 8000460:	68f8      	ldr	r0, [r7, #12]
 8000462:	f7ff ff67 	bl	8000334 <UART_send_number>
 8000466:	202e      	movs	r0, #46	@ 0x2e
 8000468:	f7ff ff3c 	bl	80002e4 <UART_Transmit>
    if (fp < 10) UART_Transmit('0');
 800046c:	68bb      	ldr	r3, [r7, #8]
 800046e:	2b09      	cmp	r3, #9
 8000470:	dc02      	bgt.n	8000478 <UART_send_float+0x74>
 8000472:	2030      	movs	r0, #48	@ 0x30
 8000474:	f7ff ff36 	bl	80002e4 <UART_Transmit>
    UART_send_number(fp);
 8000478:	68b8      	ldr	r0, [r7, #8]
 800047a:	f7ff ff5b 	bl	8000334 <UART_send_number>
//    UART_Transmit('\r'); UART_Transmit('\n');
}
 800047e:	bf00      	nop
 8000480:	3710      	adds	r7, #16
 8000482:	46bd      	mov	sp, r7
 8000484:	bd80      	pop	{r7, pc}
 8000486:	bf00      	nop
 8000488:	42c80000 	.word	0x42c80000

0800048c <I2C1_Master_Init>:

void I2C1_Master_Init()
{
 800048c:	b480      	push	{r7}
 800048e:	b08d      	sub	sp, #52	@ 0x34
 8000490:	af00      	add	r7, sp, #0
    volatile uint32_t* RCC_AHB1ENR = (uint32_t*)(RCC_BASE_ADDR + 0x30);
 8000492:	4b40      	ldr	r3, [pc, #256]	@ (8000594 <I2C1_Master_Init+0x108>)
 8000494:	62fb      	str	r3, [r7, #44]	@ 0x2c
    volatile uint32_t* RCC_APB1ENR = (uint32_t*)(RCC_BASE_ADDR + 0x40);
 8000496:	4b40      	ldr	r3, [pc, #256]	@ (8000598 <I2C1_Master_Init+0x10c>)
 8000498:	62bb      	str	r3, [r7, #40]	@ 0x28
    *RCC_AHB1ENR |= (1 << 1); // GPIOB
 800049a:	6afb      	ldr	r3, [r7, #44]	@ 0x2c
 800049c:	681b      	ldr	r3, [r3, #0]
 800049e:	f043 0202 	orr.w	r2, r3, #2
 80004a2:	6afb      	ldr	r3, [r7, #44]	@ 0x2c
 80004a4:	601a      	str	r2, [r3, #0]
    *RCC_APB1ENR |= (1 << 21); // I2C1
 80004a6:	6abb      	ldr	r3, [r7, #40]	@ 0x28
 80004a8:	681b      	ldr	r3, [r3, #0]
 80004aa:	f443 1200 	orr.w	r2, r3, #2097152	@ 0x200000
 80004ae:	6abb      	ldr	r3, [r7, #40]	@ 0x28
 80004b0:	601a      	str	r2, [r3, #0]

    volatile uint32_t* MODER   = (uint32_t*)(GPIOB_BASE_ADDR + 0x00);
 80004b2:	4b3a      	ldr	r3, [pc, #232]	@ (800059c <I2C1_Master_Init+0x110>)
 80004b4:	627b      	str	r3, [r7, #36]	@ 0x24
    volatile uint32_t* OTYPER  = (uint32_t*)(GPIOB_BASE_ADDR + 0x04);
 80004b6:	4b3a      	ldr	r3, [pc, #232]	@ (80005a0 <I2C1_Master_Init+0x114>)
 80004b8:	623b      	str	r3, [r7, #32]
    volatile uint32_t* OSPEEDR = (uint32_t*)(GPIOB_BASE_ADDR + 0x08);
 80004ba:	4b3a      	ldr	r3, [pc, #232]	@ (80005a4 <I2C1_Master_Init+0x118>)
 80004bc:	61fb      	str	r3, [r7, #28]
    volatile uint32_t* PUPDR   = (uint32_t*)(GPIOB_BASE_ADDR + 0x0C);
 80004be:	4b3a      	ldr	r3, [pc, #232]	@ (80005a8 <I2C1_Master_Init+0x11c>)
 80004c0:	61bb      	str	r3, [r7, #24]
    volatile uint32_t* AFRL    = (uint32_t*)(GPIOB_BASE_ADDR + 0x20);
 80004c2:	4b3a      	ldr	r3, [pc, #232]	@ (80005ac <I2C1_Master_Init+0x120>)
 80004c4:	617b      	str	r3, [r7, #20]
    volatile uint32_t* AFRH    = (uint32_t*)(GPIOB_BASE_ADDR + 0x24);
 80004c6:	4b3a      	ldr	r3, [pc, #232]	@ (80005b0 <I2C1_Master_Init+0x124>)
 80004c8:	613b      	str	r3, [r7, #16]

    *MODER &= ~((0b11<<(8*2)) | (0b11<<(9*2)));
 80004ca:	6a7b      	ldr	r3, [r7, #36]	@ 0x24
 80004cc:	681b      	ldr	r3, [r3, #0]
 80004ce:	f423 2270 	bic.w	r2, r3, #983040	@ 0xf0000
 80004d2:	6a7b      	ldr	r3, [r7, #36]	@ 0x24
 80004d4:	601a      	str	r2, [r3, #0]
    *MODER |=  ((0b10<<(8*2)) | (0b10<<(9*2)));  // AF
 80004d6:	6a7b      	ldr	r3, [r7, #36]	@ 0x24
 80004d8:	681b      	ldr	r3, [r3, #0]
 80004da:	f443 2220 	orr.w	r2, r3, #655360	@ 0xa0000
 80004de:	6a7b      	ldr	r3, [r7, #36]	@ 0x24
 80004e0:	601a      	str	r2, [r3, #0]

    *OTYPER |= (1<<8) | (1<<9);                  // OD
 80004e2:	6a3b      	ldr	r3, [r7, #32]
 80004e4:	681b      	ldr	r3, [r3, #0]
 80004e6:	f443 7240 	orr.w	r2, r3, #768	@ 0x300
 80004ea:	6a3b      	ldr	r3, [r7, #32]
 80004ec:	601a      	str	r2, [r3, #0]

    *OSPEEDR |= (0b11<<(8*2)) | (0b11<<(9*2));   // High
 80004ee:	69fb      	ldr	r3, [r7, #28]
 80004f0:	681b      	ldr	r3, [r3, #0]
 80004f2:	f443 2270 	orr.w	r2, r3, #983040	@ 0xf0000
 80004f6:	69fb      	ldr	r3, [r7, #28]
 80004f8:	601a      	str	r2, [r3, #0]

    *PUPDR &= ~((0b11<<(8*2)) | (0b11<<(9*2)));
 80004fa:	69bb      	ldr	r3, [r7, #24]
 80004fc:	681b      	ldr	r3, [r3, #0]
 80004fe:	f423 2270 	bic.w	r2, r3, #983040	@ 0xf0000
 8000502:	69bb      	ldr	r3, [r7, #24]
 8000504:	601a      	str	r2, [r3, #0]
    *PUPDR |=  ((0b01<<(8*2)) | (0b01<<(9*2)));  // Pull-up
 8000506:	69bb      	ldr	r3, [r7, #24]
 8000508:	681b      	ldr	r3, [r3, #0]
 800050a:	f443 22a0 	orr.w	r2, r3, #327680	@ 0x50000
 800050e:	69bb      	ldr	r3, [r7, #24]
 8000510:	601a      	str	r2, [r3, #0]

    *AFRH &= ~(0xF<<(0*4));
 8000512:	693b      	ldr	r3, [r7, #16]
 8000514:	681b      	ldr	r3, [r3, #0]
 8000516:	f023 020f 	bic.w	r2, r3, #15
 800051a:	693b      	ldr	r3, [r7, #16]
 800051c:	601a      	str	r2, [r3, #0]
    *AFRH |= (0x4<<(0*4));
 800051e:	693b      	ldr	r3, [r7, #16]
 8000520:	681b      	ldr	r3, [r3, #0]
 8000522:	f043 0204 	orr.w	r2, r3, #4
 8000526:	693b      	ldr	r3, [r7, #16]
 8000528:	601a      	str	r2, [r3, #0]
    *AFRH &= ~(0xF<<(1*4));
 800052a:	693b      	ldr	r3, [r7, #16]
 800052c:	681b      	ldr	r3, [r3, #0]
 800052e:	f023 02f0 	bic.w	r2, r3, #240	@ 0xf0
 8000532:	693b      	ldr	r3, [r7, #16]
 8000534:	601a      	str	r2, [r3, #0]
    *AFRH |= (0x4<<(1*4));
 8000536:	693b      	ldr	r3, [r7, #16]
 8000538:	681b      	ldr	r3, [r3, #0]
 800053a:	f043 0240 	orr.w	r2, r3, #64	@ 0x40
 800053e:	693b      	ldr	r3, [r7, #16]
 8000540:	601a      	str	r2, [r3, #0]

    volatile uint32_t* CR1   = (uint32_t*)(I2C1_BASE_ADDR + 0x00);
 8000542:	4b1c      	ldr	r3, [pc, #112]	@ (80005b4 <I2C1_Master_Init+0x128>)
 8000544:	60fb      	str	r3, [r7, #12]
    volatile uint32_t* CR2   = (uint32_t*)(I2C1_BASE_ADDR + 0x04);
 8000546:	4b1c      	ldr	r3, [pc, #112]	@ (80005b8 <I2C1_Master_Init+0x12c>)
 8000548:	60bb      	str	r3, [r7, #8]
    volatile uint32_t* CCR   = (uint32_t*)(I2C1_BASE_ADDR + 0x1C);
 800054a:	4b1c      	ldr	r3, [pc, #112]	@ (80005bc <I2C1_Master_Init+0x130>)
 800054c:	607b      	str	r3, [r7, #4]
    volatile uint32_t* TRISE = (uint32_t*)(I2C1_BASE_ADDR + 0x20);
 800054e:	4b1c      	ldr	r3, [pc, #112]	@ (80005c0 <I2C1_Master_Init+0x134>)
 8000550:	603b      	str	r3, [r7, #0]

    *CR1 &= ~(1<<0);   // PE=0
 8000552:	68fb      	ldr	r3, [r7, #12]
 8000554:	681b      	ldr	r3, [r3, #0]
 8000556:	f023 0201 	bic.w	r2, r3, #1
 800055a:	68fb      	ldr	r3, [r7, #12]
 800055c:	601a      	str	r2, [r3, #0]
    *CR2 = 16;         // PCLK1=16MHz
 800055e:	68bb      	ldr	r3, [r7, #8]
 8000560:	2210      	movs	r2, #16
 8000562:	601a      	str	r2, [r3, #0]
    *CCR = 80;         // 100kHz
 8000564:	687b      	ldr	r3, [r7, #4]
 8000566:	2250      	movs	r2, #80	@ 0x50
 8000568:	601a      	str	r2, [r3, #0]
    *TRISE = 17;       // 1000ns @16MHz
 800056a:	683b      	ldr	r3, [r7, #0]
 800056c:	2211      	movs	r2, #17
 800056e:	601a      	str	r2, [r3, #0]
    *CR1 |= (1<<10);   // ACK
 8000570:	68fb      	ldr	r3, [r7, #12]
 8000572:	681b      	ldr	r3, [r3, #0]
 8000574:	f443 6280 	orr.w	r2, r3, #1024	@ 0x400
 8000578:	68fb      	ldr	r3, [r7, #12]
 800057a:	601a      	str	r2, [r3, #0]
    *CR1 |= (1<<0);    // PE=1
 800057c:	68fb      	ldr	r3, [r7, #12]
 800057e:	681b      	ldr	r3, [r3, #0]
 8000580:	f043 0201 	orr.w	r2, r3, #1
 8000584:	68fb      	ldr	r3, [r7, #12]
 8000586:	601a      	str	r2, [r3, #0]
}
 8000588:	bf00      	nop
 800058a:	3734      	adds	r7, #52	@ 0x34
 800058c:	46bd      	mov	sp, r7
 800058e:	f85d 7b04 	ldr.w	r7, [sp], #4
 8000592:	4770      	bx	lr
 8000594:	40023830 	.word	0x40023830
 8000598:	40023840 	.word	0x40023840
 800059c:	40020400 	.word	0x40020400
 80005a0:	40020404 	.word	0x40020404
 80005a4:	40020408 	.word	0x40020408
 80005a8:	4002040c 	.word	0x4002040c
 80005ac:	40020420 	.word	0x40020420
 80005b0:	40020424 	.word	0x40020424
 80005b4:	40005400 	.word	0x40005400
 80005b8:	40005404 	.word	0x40005404
 80005bc:	4000541c 	.word	0x4000541c
 80005c0:	40005420 	.word	0x40005420

080005c4 <I2C1_WriteReg>:

static void I2C1_WriteReg(uint8_t dev, uint8_t reg, uint8_t data)
{
 80005c4:	b480      	push	{r7}
 80005c6:	b087      	sub	sp, #28
 80005c8:	af00      	add	r7, sp, #0
 80005ca:	4603      	mov	r3, r0
 80005cc:	71fb      	strb	r3, [r7, #7]
 80005ce:	460b      	mov	r3, r1
 80005d0:	71bb      	strb	r3, [r7, #6]
 80005d2:	4613      	mov	r3, r2
 80005d4:	717b      	strb	r3, [r7, #5]
    volatile uint32_t* CR1 = (uint32_t*)(I2C1_BASE_ADDR + 0x00);
 80005d6:	4b2a      	ldr	r3, [pc, #168]	@ (8000680 <I2C1_WriteReg+0xbc>)
 80005d8:	617b      	str	r3, [r7, #20]
    volatile uint32_t* SR1 = (uint32_t*)(I2C1_BASE_ADDR + 0x14);
 80005da:	4b2a      	ldr	r3, [pc, #168]	@ (8000684 <I2C1_WriteReg+0xc0>)
 80005dc:	613b      	str	r3, [r7, #16]
    volatile uint32_t* SR2 = (uint32_t*)(I2C1_BASE_ADDR + 0x18);
 80005de:	4b2a      	ldr	r3, [pc, #168]	@ (8000688 <I2C1_WriteReg+0xc4>)
 80005e0:	60fb      	str	r3, [r7, #12]
    volatile uint32_t* DR  = (uint32_t*)(I2C1_BASE_ADDR + 0x10);
 80005e2:	4b2a      	ldr	r3, [pc, #168]	@ (800068c <I2C1_WriteReg+0xc8>)
 80005e4:	60bb      	str	r3, [r7, #8]

    *CR1 |= (1<<8);               // START
 80005e6:	697b      	ldr	r3, [r7, #20]
 80005e8:	681b      	ldr	r3, [r3, #0]
 80005ea:	f443 7280 	orr.w	r2, r3, #256	@ 0x100
 80005ee:	697b      	ldr	r3, [r7, #20]
 80005f0:	601a      	str	r2, [r3, #0]
    while(((*SR1)&1)==0);         // SB
 80005f2:	bf00      	nop
 80005f4:	693b      	ldr	r3, [r7, #16]
 80005f6:	681b      	ldr	r3, [r3, #0]
 80005f8:	f003 0301 	and.w	r3, r3, #1
 80005fc:	2b00      	cmp	r3, #0
 80005fe:	d0f9      	beq.n	80005f4 <I2C1_WriteReg+0x30>
    *DR = (dev << 1);             // W
 8000600:	79fb      	ldrb	r3, [r7, #7]
 8000602:	005a      	lsls	r2, r3, #1
 8000604:	68bb      	ldr	r3, [r7, #8]
 8000606:	601a      	str	r2, [r3, #0]
    while(((*SR1>>1)&1)==0);      // ADDR
 8000608:	bf00      	nop
 800060a:	693b      	ldr	r3, [r7, #16]
 800060c:	681b      	ldr	r3, [r3, #0]
 800060e:	085b      	lsrs	r3, r3, #1
 8000610:	f003 0301 	and.w	r3, r3, #1
 8000614:	2b00      	cmp	r3, #0
 8000616:	d0f8      	beq.n	800060a <I2C1_WriteReg+0x46>
    (void)*SR2;
 8000618:	68fb      	ldr	r3, [r7, #12]
 800061a:	681b      	ldr	r3, [r3, #0]

    while(((*SR1>>7)&1)==0);      // TxE
 800061c:	bf00      	nop
 800061e:	693b      	ldr	r3, [r7, #16]
 8000620:	681b      	ldr	r3, [r3, #0]
 8000622:	09db      	lsrs	r3, r3, #7
 8000624:	f003 0301 	and.w	r3, r3, #1
 8000628:	2b00      	cmp	r3, #0
 800062a:	d0f8      	beq.n	800061e <I2C1_WriteReg+0x5a>
    *DR = reg;
 800062c:	79ba      	ldrb	r2, [r7, #6]
 800062e:	68bb      	ldr	r3, [r7, #8]
 8000630:	601a      	str	r2, [r3, #0]

    while(((*SR1>>7)&1)==0);      // TxE
 8000632:	bf00      	nop
 8000634:	693b      	ldr	r3, [r7, #16]
 8000636:	681b      	ldr	r3, [r3, #0]
 8000638:	09db      	lsrs	r3, r3, #7
 800063a:	f003 0301 	and.w	r3, r3, #1
 800063e:	2b00      	cmp	r3, #0
 8000640:	d0f8      	beq.n	8000634 <I2C1_WriteReg+0x70>
    *DR = data;
 8000642:	797a      	ldrb	r2, [r7, #5]
 8000644:	68bb      	ldr	r3, [r7, #8]
 8000646:	601a      	str	r2, [r3, #0]

    while(((*SR1>>2)&1)==0);      // BTF
 8000648:	bf00      	nop
 800064a:	693b      	ldr	r3, [r7, #16]
 800064c:	681b      	ldr	r3, [r3, #0]
 800064e:	089b      	lsrs	r3, r3, #2
 8000650:	f003 0301 	and.w	r3, r3, #1
 8000654:	2b00      	cmp	r3, #0
 8000656:	d0f8      	beq.n	800064a <I2C1_WriteReg+0x86>
    *CR1 |= (1<<9);               // STOP
 8000658:	697b      	ldr	r3, [r7, #20]
 800065a:	681b      	ldr	r3, [r3, #0]
 800065c:	f443 7200 	orr.w	r2, r3, #512	@ 0x200
 8000660:	697b      	ldr	r3, [r7, #20]
 8000662:	601a      	str	r2, [r3, #0]
    while(*CR1 & (1<<9));
 8000664:	bf00      	nop
 8000666:	697b      	ldr	r3, [r7, #20]
 8000668:	681b      	ldr	r3, [r3, #0]
 800066a:	f403 7300 	and.w	r3, r3, #512	@ 0x200
 800066e:	2b00      	cmp	r3, #0
 8000670:	d1f9      	bne.n	8000666 <I2C1_WriteReg+0xa2>
}
 8000672:	bf00      	nop
 8000674:	bf00      	nop
 8000676:	371c      	adds	r7, #28
 8000678:	46bd      	mov	sp, r7
 800067a:	f85d 7b04 	ldr.w	r7, [sp], #4
 800067e:	4770      	bx	lr
 8000680:	40005400 	.word	0x40005400
 8000684:	40005414 	.word	0x40005414
 8000688:	40005418 	.word	0x40005418
 800068c:	40005410 	.word	0x40005410

08000690 <I2C1_ReadMulti>:

static void I2C1_ReadMulti(uint8_t dev, uint8_t reg_start, uint8_t* buf, uint8_t len)
{
 8000690:	b480      	push	{r7}
 8000692:	b089      	sub	sp, #36	@ 0x24
 8000694:	af00      	add	r7, sp, #0
 8000696:	603a      	str	r2, [r7, #0]
 8000698:	461a      	mov	r2, r3
 800069a:	4603      	mov	r3, r0
 800069c:	71fb      	strb	r3, [r7, #7]
 800069e:	460b      	mov	r3, r1
 80006a0:	71bb      	strb	r3, [r7, #6]
 80006a2:	4613      	mov	r3, r2
 80006a4:	717b      	strb	r3, [r7, #5]
    volatile uint32_t* CR1 = (uint32_t*)(I2C1_BASE_ADDR + 0x00);
 80006a6:	4b42      	ldr	r3, [pc, #264]	@ (80007b0 <I2C1_ReadMulti+0x120>)
 80006a8:	61bb      	str	r3, [r7, #24]
    volatile uint32_t* SR1 = (uint32_t*)(I2C1_BASE_ADDR + 0x14);
 80006aa:	4b42      	ldr	r3, [pc, #264]	@ (80007b4 <I2C1_ReadMulti+0x124>)
 80006ac:	617b      	str	r3, [r7, #20]
    volatile uint32_t* SR2 = (uint32_t*)(I2C1_BASE_ADDR + 0x18);
 80006ae:	4b42      	ldr	r3, [pc, #264]	@ (80007b8 <I2C1_ReadMulti+0x128>)
 80006b0:	613b      	str	r3, [r7, #16]
    volatile uint32_t* DR  = (uint32_t*)(I2C1_BASE_ADDR + 0x10);
 80006b2:	4b42      	ldr	r3, [pc, #264]	@ (80007bc <I2C1_ReadMulti+0x12c>)
 80006b4:	60fb      	str	r3, [r7, #12]

    // Write reg address
    *CR1 |= (1<<8);
 80006b6:	69bb      	ldr	r3, [r7, #24]
 80006b8:	681b      	ldr	r3, [r3, #0]
 80006ba:	f443 7280 	orr.w	r2, r3, #256	@ 0x100
 80006be:	69bb      	ldr	r3, [r7, #24]
 80006c0:	601a      	str	r2, [r3, #0]
    while(!(*SR1 & 1));
 80006c2:	bf00      	nop
 80006c4:	697b      	ldr	r3, [r7, #20]
 80006c6:	681b      	ldr	r3, [r3, #0]
 80006c8:	f003 0301 	and.w	r3, r3, #1
 80006cc:	2b00      	cmp	r3, #0
 80006ce:	d0f9      	beq.n	80006c4 <I2C1_ReadMulti+0x34>
    *DR = (dev << 1);             // W
 80006d0:	79fb      	ldrb	r3, [r7, #7]
 80006d2:	005a      	lsls	r2, r3, #1
 80006d4:	68fb      	ldr	r3, [r7, #12]
 80006d6:	601a      	str	r2, [r3, #0]
    while(!(*SR1 & (1<<1)));
 80006d8:	bf00      	nop
 80006da:	697b      	ldr	r3, [r7, #20]
 80006dc:	681b      	ldr	r3, [r3, #0]
 80006de:	f003 0302 	and.w	r3, r3, #2
 80006e2:	2b00      	cmp	r3, #0
 80006e4:	d0f9      	beq.n	80006da <I2C1_ReadMulti+0x4a>
    (void)*SR2;
 80006e6:	693b      	ldr	r3, [r7, #16]
 80006e8:	681b      	ldr	r3, [r3, #0]

    while(!(*SR1 & (1<<7)));
 80006ea:	bf00      	nop
 80006ec:	697b      	ldr	r3, [r7, #20]
 80006ee:	681b      	ldr	r3, [r3, #0]
 80006f0:	f003 0380 	and.w	r3, r3, #128	@ 0x80
 80006f4:	2b00      	cmp	r3, #0
 80006f6:	d0f9      	beq.n	80006ec <I2C1_ReadMulti+0x5c>
    *DR = reg_start;              // (BNO không cần auto-inc flag)
 80006f8:	79ba      	ldrb	r2, [r7, #6]
 80006fa:	68fb      	ldr	r3, [r7, #12]
 80006fc:	601a      	str	r2, [r3, #0]

    while(!(*SR1 & (1<<7)));      // TxE done
 80006fe:	bf00      	nop
 8000700:	697b      	ldr	r3, [r7, #20]
 8000702:	681b      	ldr	r3, [r3, #0]
 8000704:	f003 0380 	and.w	r3, r3, #128	@ 0x80
 8000708:	2b00      	cmp	r3, #0
 800070a:	d0f9      	beq.n	8000700 <I2C1_ReadMulti+0x70>

    // Re-START for Read
    *CR1 |= (1<<8);
 800070c:	69bb      	ldr	r3, [r7, #24]
 800070e:	681b      	ldr	r3, [r3, #0]
 8000710:	f443 7280 	orr.w	r2, r3, #256	@ 0x100
 8000714:	69bb      	ldr	r3, [r7, #24]
 8000716:	601a      	str	r2, [r3, #0]
    while(!(*SR1 & 1));
 8000718:	bf00      	nop
 800071a:	697b      	ldr	r3, [r7, #20]
 800071c:	681b      	ldr	r3, [r3, #0]
 800071e:	f003 0301 	and.w	r3, r3, #1
 8000722:	2b00      	cmp	r3, #0
 8000724:	d0f9      	beq.n	800071a <I2C1_ReadMulti+0x8a>
    *DR = (dev << 1) | 1;         // R
 8000726:	79fb      	ldrb	r3, [r7, #7]
 8000728:	005b      	lsls	r3, r3, #1
 800072a:	f043 0301 	orr.w	r3, r3, #1
 800072e:	461a      	mov	r2, r3
 8000730:	68fb      	ldr	r3, [r7, #12]
 8000732:	601a      	str	r2, [r3, #0]
    while(!(*SR1 & (1<<1)));
 8000734:	bf00      	nop
 8000736:	697b      	ldr	r3, [r7, #20]
 8000738:	681b      	ldr	r3, [r3, #0]
 800073a:	f003 0302 	and.w	r3, r3, #2
 800073e:	2b00      	cmp	r3, #0
 8000740:	d0f9      	beq.n	8000736 <I2C1_ReadMulti+0xa6>
    (void)*SR2;
 8000742:	693b      	ldr	r3, [r7, #16]
 8000744:	681b      	ldr	r3, [r3, #0]

    for (uint8_t i = 0; i < len; i++)
 8000746:	2300      	movs	r3, #0
 8000748:	77fb      	strb	r3, [r7, #31]
 800074a:	e021      	b.n	8000790 <I2C1_ReadMulti+0x100>
    {
        if (i == len - 1)
 800074c:	7ffa      	ldrb	r2, [r7, #31]
 800074e:	797b      	ldrb	r3, [r7, #5]
 8000750:	3b01      	subs	r3, #1
 8000752:	429a      	cmp	r2, r3
 8000754:	d10b      	bne.n	800076e <I2C1_ReadMulti+0xde>
        {
            *CR1 &= ~(1<<10);     // ACK=0 cho byte cuối
 8000756:	69bb      	ldr	r3, [r7, #24]
 8000758:	681b      	ldr	r3, [r3, #0]
 800075a:	f423 6280 	bic.w	r2, r3, #1024	@ 0x400
 800075e:	69bb      	ldr	r3, [r7, #24]
 8000760:	601a      	str	r2, [r3, #0]
            *CR1 |= (1<<9);       // STOP
 8000762:	69bb      	ldr	r3, [r7, #24]
 8000764:	681b      	ldr	r3, [r3, #0]
 8000766:	f443 7200 	orr.w	r2, r3, #512	@ 0x200
 800076a:	69bb      	ldr	r3, [r7, #24]
 800076c:	601a      	str	r2, [r3, #0]
        }
        while(!(*SR1 & (1<<6)));  // RxNE
 800076e:	bf00      	nop
 8000770:	697b      	ldr	r3, [r7, #20]
 8000772:	681b      	ldr	r3, [r3, #0]
 8000774:	f003 0340 	and.w	r3, r3, #64	@ 0x40
 8000778:	2b00      	cmp	r3, #0
 800077a:	d0f9      	beq.n	8000770 <I2C1_ReadMulti+0xe0>
        buf[i] = *DR;
 800077c:	68fb      	ldr	r3, [r7, #12]
 800077e:	6819      	ldr	r1, [r3, #0]
 8000780:	7ffb      	ldrb	r3, [r7, #31]
 8000782:	683a      	ldr	r2, [r7, #0]
 8000784:	4413      	add	r3, r2
 8000786:	b2ca      	uxtb	r2, r1
 8000788:	701a      	strb	r2, [r3, #0]
    for (uint8_t i = 0; i < len; i++)
 800078a:	7ffb      	ldrb	r3, [r7, #31]
 800078c:	3301      	adds	r3, #1
 800078e:	77fb      	strb	r3, [r7, #31]
 8000790:	7ffa      	ldrb	r2, [r7, #31]
 8000792:	797b      	ldrb	r3, [r7, #5]
 8000794:	429a      	cmp	r2, r3
 8000796:	d3d9      	bcc.n	800074c <I2C1_ReadMulti+0xbc>
    }
    *CR1 |= (1<<10); // bật lại ACK cho lần giao tiếp kế
 8000798:	69bb      	ldr	r3, [r7, #24]
 800079a:	681b      	ldr	r3, [r3, #0]
 800079c:	f443 6280 	orr.w	r2, r3, #1024	@ 0x400
 80007a0:	69bb      	ldr	r3, [r7, #24]
 80007a2:	601a      	str	r2, [r3, #0]
}
 80007a4:	bf00      	nop
 80007a6:	3724      	adds	r7, #36	@ 0x24
 80007a8:	46bd      	mov	sp, r7
 80007aa:	f85d 7b04 	ldr.w	r7, [sp], #4
 80007ae:	4770      	bx	lr
 80007b0:	40005400 	.word	0x40005400
 80007b4:	40005414 	.word	0x40005414
 80007b8:	40005418 	.word	0x40005418
 80007bc:	40005410 	.word	0x40005410

080007c0 <BNO055_ReadReg>:

//BNO055 helpers
static uint8_t BNO055_ReadReg(uint8_t reg)
{
 80007c0:	b580      	push	{r7, lr}
 80007c2:	b084      	sub	sp, #16
 80007c4:	af00      	add	r7, sp, #0
 80007c6:	4603      	mov	r3, r0
 80007c8:	71fb      	strb	r3, [r7, #7]
    uint8_t v=0;
 80007ca:	2300      	movs	r3, #0
 80007cc:	73fb      	strb	r3, [r7, #15]
    I2C1_ReadMulti(BNO055_I2C_ADDR, reg, &v, 1);
 80007ce:	f107 020f 	add.w	r2, r7, #15
 80007d2:	79f9      	ldrb	r1, [r7, #7]
 80007d4:	2301      	movs	r3, #1
 80007d6:	2029      	movs	r0, #41	@ 0x29
 80007d8:	f7ff ff5a 	bl	8000690 <I2C1_ReadMulti>
    return v;
 80007dc:	7bfb      	ldrb	r3, [r7, #15]
}
 80007de:	4618      	mov	r0, r3
 80007e0:	3710      	adds	r7, #16
 80007e2:	46bd      	mov	sp, r7
 80007e4:	bd80      	pop	{r7, pc}

080007e6 <BNO055_Init>:

/* Khởi tạo: CONFIG -> PAGE0 -> PWR NORMAL -> NDOF */
void BNO055_Init(void)
{
 80007e6:	b580      	push	{r7, lr}
 80007e8:	af00      	add	r7, sp, #0
    // Về CONFIG mode
    I2C1_WriteReg(BNO055_I2C_ADDR, BNO055_OPR_MODE, OPR_MODE_CONFIG);
 80007ea:	2200      	movs	r2, #0
 80007ec:	213d      	movs	r1, #61	@ 0x3d
 80007ee:	2029      	movs	r0, #41	@ 0x29
 80007f0:	f7ff fee8 	bl	80005c4 <I2C1_WriteReg>
    HAL_Delay(25);
 80007f4:	2019      	movs	r0, #25
 80007f6:	f000 f9bd 	bl	8000b74 <HAL_Delay>

    // Khóa Page 0 để chắc chắn đúng bank thanh ghi
    I2C1_WriteReg(BNO055_I2C_ADDR, BNO055_PAGE_ID, 0x00);
 80007fa:	2200      	movs	r2, #0
 80007fc:	2107      	movs	r1, #7
 80007fe:	2029      	movs	r0, #41	@ 0x29
 8000800:	f7ff fee0 	bl	80005c4 <I2C1_WriteReg>

    // Chọn Power mode NORMAL
    I2C1_WriteReg(BNO055_I2C_ADDR, BNO055_PWR_MODE, PWR_MODE_NORMAL);
 8000804:	2200      	movs	r2, #0
 8000806:	213e      	movs	r1, #62	@ 0x3e
 8000808:	2029      	movs	r0, #41	@ 0x29
 800080a:	f7ff fedb 	bl	80005c4 <I2C1_WriteReg>
    HAL_Delay(10);
 800080e:	200a      	movs	r0, #10
 8000810:	f000 f9b0 	bl	8000b74 <HAL_Delay>

    // Sang NDOF (Fusion 9DOF)
    I2C1_WriteReg(BNO055_I2C_ADDR, BNO055_OPR_MODE, OPR_MODE_NDOF);
 8000814:	220c      	movs	r2, #12
 8000816:	213d      	movs	r1, #61	@ 0x3d
 8000818:	2029      	movs	r0, #41	@ 0x29
 800081a:	f7ff fed3 	bl	80005c4 <I2C1_WriteReg>
    HAL_Delay(20);
 800081e:	2014      	movs	r0, #20
 8000820:	f000 f9a8 	bl	8000b74 <HAL_Delay>
}
 8000824:	bf00      	nop
 8000826:	bd80      	pop	{r7, pc}

08000828 <BNO055_ReadEuler_raw>:

/* Đọc Euler (Heading/Yaw, Roll, Pitch) – raw 1/16 độ */
void BNO055_ReadEuler_raw(int16_t* eul_x, int16_t* eul_y, int16_t* eul_z)
{
 8000828:	b580      	push	{r7, lr}
 800082a:	b086      	sub	sp, #24
 800082c:	af00      	add	r7, sp, #0
 800082e:	60f8      	str	r0, [r7, #12]
 8000830:	60b9      	str	r1, [r7, #8]
 8000832:	607a      	str	r2, [r7, #4]
    uint8_t buf[6];
    I2C1_ReadMulti(BNO055_I2C_ADDR, BNO055_EUL_X_LSB, buf, 6);
 8000834:	f107 0210 	add.w	r2, r7, #16
 8000838:	2306      	movs	r3, #6
 800083a:	211a      	movs	r1, #26
 800083c:	2029      	movs	r0, #41	@ 0x29
 800083e:	f7ff ff27 	bl	8000690 <I2C1_ReadMulti>
    // Little-endian
    *eul_x = (int16_t)((buf[1] << 8) | buf[0]); // Heading/Yaw
 8000842:	7c7b      	ldrb	r3, [r7, #17]
 8000844:	b21b      	sxth	r3, r3
 8000846:	021b      	lsls	r3, r3, #8
 8000848:	b21a      	sxth	r2, r3
 800084a:	7c3b      	ldrb	r3, [r7, #16]
 800084c:	b21b      	sxth	r3, r3
 800084e:	4313      	orrs	r3, r2
 8000850:	b21a      	sxth	r2, r3
 8000852:	68fb      	ldr	r3, [r7, #12]
 8000854:	801a      	strh	r2, [r3, #0]
//    *eul_y = (int16_t)((buf[3] << 8) | buf[2]); // Roll
//    *eul_z = (int16_t)((buf[5] << 8) | buf[4]); // Pitch
}
 8000856:	bf00      	nop
 8000858:	3718      	adds	r7, #24
 800085a:	46bd      	mov	sp, r7
 800085c:	bd80      	pop	{r7, pc}
	...

08000860 <main>:
    return data;
}


int main(void)
{
 8000860:	b580      	push	{r7, lr}
 8000862:	b086      	sub	sp, #24
 8000864:	af00      	add	r7, sp, #0
    HAL_Init();
 8000866:	f000 f913 	bl	8000a90 <HAL_Init>
    UART_init();
 800086a:	f7ff fcb3 	bl	80001d4 <UART_init>
    I2C1_Master_Init();
 800086e:	f7ff fe0d 	bl	800048c <I2C1_Master_Init>
//    I2C_master_transmit(0x28,0x40);
    uint8_t id = BNO055_ReadReg(BNO055_CHIP_ID);
 8000872:	2000      	movs	r0, #0
 8000874:	f7ff ffa4 	bl	80007c0 <BNO055_ReadReg>
 8000878:	4603      	mov	r3, r0
 800087a:	75fb      	strb	r3, [r7, #23]
    UART_print_log("CHIP_ID="); UART_send_number(id); UART_print_log("\r\n");
 800087c:	4833      	ldr	r0, [pc, #204]	@ (800094c <main+0xec>)
 800087e:	f7ff fda5 	bl	80003cc <UART_print_log>
 8000882:	7dfb      	ldrb	r3, [r7, #23]
 8000884:	4618      	mov	r0, r3
 8000886:	f7ff fd55 	bl	8000334 <UART_send_number>
 800088a:	4831      	ldr	r0, [pc, #196]	@ (8000950 <main+0xf0>)
 800088c:	f7ff fd9e 	bl	80003cc <UART_print_log>
    if (id != BNO055_CHIP_ID_VAL) {
 8000890:	7dfb      	ldrb	r3, [r7, #23]
 8000892:	2ba0      	cmp	r3, #160	@ 0xa0
 8000894:	d004      	beq.n	80008a0 <main+0x40>
        UART_print_log("BNO055 not found (addr/PS/pull-up?)\r\n");
 8000896:	482f      	ldr	r0, [pc, #188]	@ (8000954 <main+0xf4>)
 8000898:	f7ff fd98 	bl	80003cc <UART_print_log>
        while(1);
 800089c:	bf00      	nop
 800089e:	e7fd      	b.n	800089c <main+0x3c>
    }

    UART_print_log("BNO055 init...\r\n");
 80008a0:	482d      	ldr	r0, [pc, #180]	@ (8000958 <main+0xf8>)
 80008a2:	f7ff fd93 	bl	80003cc <UART_print_log>
    BNO055_Init();
 80008a6:	f7ff ff9e 	bl	80007e6 <BNO055_Init>

    HAL_Delay(50);
 80008aa:	2032      	movs	r0, #50	@ 0x32
 80008ac:	f000 f962 	bl	8000b74 <HAL_Delay>
    while (1)
    {
        int16_t ex, ey, ez;     // raw (1/16 deg)
        float   yaw, roll, pitch;

        BNO055_ReadEuler_raw(&ex, &ey, &ez);
 80008b0:	1cba      	adds	r2, r7, #2
 80008b2:	1d39      	adds	r1, r7, #4
 80008b4:	1dbb      	adds	r3, r7, #6
 80008b6:	4618      	mov	r0, r3
 80008b8:	f7ff ffb6 	bl	8000828 <BNO055_ReadEuler_raw>

        yaw   =  ex / 16.0f;    // Heading/Yaw
 80008bc:	f9b7 3006 	ldrsh.w	r3, [r7, #6]
 80008c0:	ee07 3a90 	vmov	s15, r3
 80008c4:	eeb8 7ae7 	vcvt.f32.s32	s14, s15
 80008c8:	eef3 6a00 	vmov.f32	s13, #48	@ 0x41800000  16.0
 80008cc:	eec7 7a26 	vdiv.f32	s15, s14, s13
 80008d0:	edc7 7a04 	vstr	s15, [r7, #16]
        roll  =  ey / 16.0f;    // Roll
 80008d4:	f9b7 3004 	ldrsh.w	r3, [r7, #4]
 80008d8:	ee07 3a90 	vmov	s15, r3
 80008dc:	eeb8 7ae7 	vcvt.f32.s32	s14, s15
 80008e0:	eef3 6a00 	vmov.f32	s13, #48	@ 0x41800000  16.0
 80008e4:	eec7 7a26 	vdiv.f32	s15, s14, s13
 80008e8:	edc7 7a03 	vstr	s15, [r7, #12]
        pitch =  ez / 16.0f;    // Pitch
 80008ec:	f9b7 3002 	ldrsh.w	r3, [r7, #2]
 80008f0:	ee07 3a90 	vmov	s15, r3
 80008f4:	eeb8 7ae7 	vcvt.f32.s32	s14, s15
 80008f8:	eef3 6a00 	vmov.f32	s13, #48	@ 0x41800000  16.0
 80008fc:	eec7 7a26 	vdiv.f32	s15, s14, s13
 8000900:	edc7 7a02 	vstr	s15, [r7, #8]

        UART_print_log("y:");	UART_send_float(yaw);	UART_print_log("\r\n");
 8000904:	4815      	ldr	r0, [pc, #84]	@ (800095c <main+0xfc>)
 8000906:	f7ff fd61 	bl	80003cc <UART_print_log>
 800090a:	ed97 0a04 	vldr	s0, [r7, #16]
 800090e:	f7ff fd79 	bl	8000404 <UART_send_float>
 8000912:	480f      	ldr	r0, [pc, #60]	@ (8000950 <main+0xf0>)
 8000914:	f7ff fd5a 	bl	80003cc <UART_print_log>
        UART_print_log("p:");	UART_send_float(pitch);	UART_print_log("\r\n");
 8000918:	4811      	ldr	r0, [pc, #68]	@ (8000960 <main+0x100>)
 800091a:	f7ff fd57 	bl	80003cc <UART_print_log>
 800091e:	ed97 0a02 	vldr	s0, [r7, #8]
 8000922:	f7ff fd6f 	bl	8000404 <UART_send_float>
 8000926:	480a      	ldr	r0, [pc, #40]	@ (8000950 <main+0xf0>)
 8000928:	f7ff fd50 	bl	80003cc <UART_print_log>
        UART_print_log("r:");  UART_send_float(roll);	UART_print_log("\r\n");
 800092c:	480d      	ldr	r0, [pc, #52]	@ (8000964 <main+0x104>)
 800092e:	f7ff fd4d 	bl	80003cc <UART_print_log>
 8000932:	ed97 0a03 	vldr	s0, [r7, #12]
 8000936:	f7ff fd65 	bl	8000404 <UART_send_float>
 800093a:	4805      	ldr	r0, [pc, #20]	@ (8000950 <main+0xf0>)
 800093c:	f7ff fd46 	bl	80003cc <UART_print_log>
//
//        UART_Transmit('}');
//        UART_Transmit('\n');
//        HAL_Delay(10);
//    	I2C1_Slave_Receive();
    	HAL_Delay(100);
 8000940:	2064      	movs	r0, #100	@ 0x64
 8000942:	f000 f917 	bl	8000b74 <HAL_Delay>
    {
 8000946:	bf00      	nop
 8000948:	e7b2      	b.n	80008b0 <main+0x50>
 800094a:	bf00      	nop
 800094c:	08000de8 	.word	0x08000de8
 8000950:	08000df4 	.word	0x08000df4
 8000954:	08000df8 	.word	0x08000df8
 8000958:	08000e20 	.word	0x08000e20
 800095c:	08000e34 	.word	0x08000e34
 8000960:	08000e38 	.word	0x08000e38
 8000964:	08000e3c 	.word	0x08000e3c

08000968 <HAL_MspInit>:
 8000968:	b480      	push	{r7}
 800096a:	b083      	sub	sp, #12
 800096c:	af00      	add	r7, sp, #0
 800096e:	2300      	movs	r3, #0
 8000970:	607b      	str	r3, [r7, #4]
 8000972:	4b10      	ldr	r3, [pc, #64]	@ (80009b4 <HAL_MspInit+0x4c>)
 8000974:	6c5b      	ldr	r3, [r3, #68]	@ 0x44
 8000976:	4a0f      	ldr	r2, [pc, #60]	@ (80009b4 <HAL_MspInit+0x4c>)
 8000978:	f443 4380 	orr.w	r3, r3, #16384	@ 0x4000
 800097c:	6453      	str	r3, [r2, #68]	@ 0x44
 800097e:	4b0d      	ldr	r3, [pc, #52]	@ (80009b4 <HAL_MspInit+0x4c>)
 8000980:	6c5b      	ldr	r3, [r3, #68]	@ 0x44
 8000982:	f403 4380 	and.w	r3, r3, #16384	@ 0x4000
 8000986:	607b      	str	r3, [r7, #4]
 8000988:	687b      	ldr	r3, [r7, #4]
 800098a:	2300      	movs	r3, #0
 800098c:	603b      	str	r3, [r7, #0]
 800098e:	4b09      	ldr	r3, [pc, #36]	@ (80009b4 <HAL_MspInit+0x4c>)
 8000990:	6c1b      	ldr	r3, [r3, #64]	@ 0x40
 8000992:	4a08      	ldr	r2, [pc, #32]	@ (80009b4 <HAL_MspInit+0x4c>)
 8000994:	f043 5380 	orr.w	r3, r3, #268435456	@ 0x10000000
 8000998:	6413      	str	r3, [r2, #64]	@ 0x40
 800099a:	4b06      	ldr	r3, [pc, #24]	@ (80009b4 <HAL_MspInit+0x4c>)
 800099c:	6c1b      	ldr	r3, [r3, #64]	@ 0x40
 800099e:	f003 5380 	and.w	r3, r3, #268435456	@ 0x10000000
 80009a2:	603b      	str	r3, [r7, #0]
 80009a4:	683b      	ldr	r3, [r7, #0]
 80009a6:	bf00      	nop
 80009a8:	370c      	adds	r7, #12
 80009aa:	46bd      	mov	sp, r7
 80009ac:	f85d 7b04 	ldr.w	r7, [sp], #4
 80009b0:	4770      	bx	lr
 80009b2:	bf00      	nop
 80009b4:	40023800 	.word	0x40023800

080009b8 <NMI_Handler>:
 80009b8:	b480      	push	{r7}
 80009ba:	af00      	add	r7, sp, #0
 80009bc:	bf00      	nop
 80009be:	e7fd      	b.n	80009bc <NMI_Handler+0x4>

080009c0 <HardFault_Handler>:
 80009c0:	b480      	push	{r7}
 80009c2:	af00      	add	r7, sp, #0
 80009c4:	bf00      	nop
 80009c6:	e7fd      	b.n	80009c4 <HardFault_Handler+0x4>

080009c8 <MemManage_Handler>:
 80009c8:	b480      	push	{r7}
 80009ca:	af00      	add	r7, sp, #0
 80009cc:	bf00      	nop
 80009ce:	e7fd      	b.n	80009cc <MemManage_Handler+0x4>

080009d0 <BusFault_Handler>:
 80009d0:	b480      	push	{r7}
 80009d2:	af00      	add	r7, sp, #0
 80009d4:	bf00      	nop
 80009d6:	e7fd      	b.n	80009d4 <BusFault_Handler+0x4>

080009d8 <UsageFault_Handler>:
 80009d8:	b480      	push	{r7}
 80009da:	af00      	add	r7, sp, #0
 80009dc:	bf00      	nop
 80009de:	e7fd      	b.n	80009dc <UsageFault_Handler+0x4>

080009e0 <SVC_Handler>:
 80009e0:	b480      	push	{r7}
 80009e2:	af00      	add	r7, sp, #0
 80009e4:	bf00      	nop
 80009e6:	46bd      	mov	sp, r7
 80009e8:	f85d 7b04 	ldr.w	r7, [sp], #4
 80009ec:	4770      	bx	lr

080009ee <DebugMon_Handler>:
 80009ee:	b480      	push	{r7}
 80009f0:	af00      	add	r7, sp, #0
 80009f2:	bf00      	nop
 80009f4:	46bd      	mov	sp, r7
 80009f6:	f85d 7b04 	ldr.w	r7, [sp], #4
 80009fa:	4770      	bx	lr

080009fc <PendSV_Handler>:
 80009fc:	b480      	push	{r7}
 80009fe:	af00      	add	r7, sp, #0
 8000a00:	bf00      	nop
 8000a02:	46bd      	mov	sp, r7
 8000a04:	f85d 7b04 	ldr.w	r7, [sp], #4
 8000a08:	4770      	bx	lr

08000a0a <SysTick_Handler>:
 8000a0a:	b580      	push	{r7, lr}
 8000a0c:	af00      	add	r7, sp, #0
 8000a0e:	f000 f891 	bl	8000b34 <HAL_IncTick>
 8000a12:	bf00      	nop
 8000a14:	bd80      	pop	{r7, pc}
	...

08000a18 <SystemInit>:
 8000a18:	b480      	push	{r7}
 8000a1a:	af00      	add	r7, sp, #0
 8000a1c:	4b06      	ldr	r3, [pc, #24]	@ (8000a38 <SystemInit+0x20>)
 8000a1e:	f8d3 3088 	ldr.w	r3, [r3, #136]	@ 0x88
 8000a22:	4a05      	ldr	r2, [pc, #20]	@ (8000a38 <SystemInit+0x20>)
 8000a24:	f443 0370 	orr.w	r3, r3, #15728640	@ 0xf00000
 8000a28:	f8c2 3088 	str.w	r3, [r2, #136]	@ 0x88
 8000a2c:	bf00      	nop
 8000a2e:	46bd      	mov	sp, r7
 8000a30:	f85d 7b04 	ldr.w	r7, [sp], #4
 8000a34:	4770      	bx	lr
 8000a36:	bf00      	nop
 8000a38:	e000ed00 	.word	0xe000ed00

08000a3c <Reset_Handler>:
 8000a3c:	f8df d034 	ldr.w	sp, [pc, #52]	@ 8000a74 <LoopFillZerobss+0xe>
 8000a40:	f7ff ffea 	bl	8000a18 <SystemInit>
 8000a44:	480c      	ldr	r0, [pc, #48]	@ (8000a78 <LoopFillZerobss+0x12>)
 8000a46:	490d      	ldr	r1, [pc, #52]	@ (8000a7c <LoopFillZerobss+0x16>)
 8000a48:	4a0d      	ldr	r2, [pc, #52]	@ (8000a80 <LoopFillZerobss+0x1a>)
 8000a4a:	2300      	movs	r3, #0
 8000a4c:	e002      	b.n	8000a54 <LoopCopyDataInit>

08000a4e <CopyDataInit>:
 8000a4e:	58d4      	ldr	r4, [r2, r3]
 8000a50:	50c4      	str	r4, [r0, r3]
 8000a52:	3304      	adds	r3, #4

08000a54 <LoopCopyDataInit>:
 8000a54:	18c4      	adds	r4, r0, r3
 8000a56:	428c      	cmp	r4, r1
 8000a58:	d3f9      	bcc.n	8000a4e <CopyDataInit>
 8000a5a:	4a0a      	ldr	r2, [pc, #40]	@ (8000a84 <LoopFillZerobss+0x1e>)
 8000a5c:	4c0a      	ldr	r4, [pc, #40]	@ (8000a88 <LoopFillZerobss+0x22>)
 8000a5e:	2300      	movs	r3, #0
 8000a60:	e001      	b.n	8000a66 <LoopFillZerobss>

08000a62 <FillZerobss>:
 8000a62:	6013      	str	r3, [r2, #0]
 8000a64:	3204      	adds	r2, #4

08000a66 <LoopFillZerobss>:
 8000a66:	42a2      	cmp	r2, r4
 8000a68:	d3fb      	bcc.n	8000a62 <FillZerobss>
 8000a6a:	f000 f98d 	bl	8000d88 <__libc_init_array>
 8000a6e:	f7ff fef7 	bl	8000860 <main>
 8000a72:	4770      	bx	lr
 8000a74:	20018000 	.word	0x20018000
 8000a78:	20000000 	.word	0x20000000
 8000a7c:	2000000c 	.word	0x2000000c
 8000a80:	08000e48 	.word	0x08000e48
 8000a84:	2000000c 	.word	0x2000000c
 8000a88:	2000002c 	.word	0x2000002c

08000a8c <ADC_IRQHandler>:
 8000a8c:	e7fe      	b.n	8000a8c <ADC_IRQHandler>
	...

08000a90 <HAL_Init>:
 8000a90:	b580      	push	{r7, lr}
 8000a92:	af00      	add	r7, sp, #0
 8000a94:	4b0e      	ldr	r3, [pc, #56]	@ (8000ad0 <HAL_Init+0x40>)
 8000a96:	681b      	ldr	r3, [r3, #0]
 8000a98:	4a0d      	ldr	r2, [pc, #52]	@ (8000ad0 <HAL_Init+0x40>)
 8000a9a:	f443 7300 	orr.w	r3, r3, #512	@ 0x200
 8000a9e:	6013      	str	r3, [r2, #0]
 8000aa0:	4b0b      	ldr	r3, [pc, #44]	@ (8000ad0 <HAL_Init+0x40>)
 8000aa2:	681b      	ldr	r3, [r3, #0]
 8000aa4:	4a0a      	ldr	r2, [pc, #40]	@ (8000ad0 <HAL_Init+0x40>)
 8000aa6:	f443 6380 	orr.w	r3, r3, #1024	@ 0x400
 8000aaa:	6013      	str	r3, [r2, #0]
 8000aac:	4b08      	ldr	r3, [pc, #32]	@ (8000ad0 <HAL_Init+0x40>)
 8000aae:	681b      	ldr	r3, [r3, #0]
 8000ab0:	4a07      	ldr	r2, [pc, #28]	@ (8000ad0 <HAL_Init+0x40>)
 8000ab2:	f443 7380 	orr.w	r3, r3, #256	@ 0x100
 8000ab6:	6013      	str	r3, [r2, #0]
 8000ab8:	2003      	movs	r0, #3
 8000aba:	f000 f931 	bl	8000d20 <HAL_NVIC_SetPriorityGrouping>
 8000abe:	200f      	movs	r0, #15
 8000ac0:	f000 f808 	bl	8000ad4 <HAL_InitTick>
 8000ac4:	f7ff ff50 	bl	8000968 <HAL_MspInit>
 8000ac8:	2300      	movs	r3, #0
 8000aca:	4618      	mov	r0, r3
 8000acc:	bd80      	pop	{r7, pc}
 8000ace:	bf00      	nop
 8000ad0:	40023c00 	.word	0x40023c00

08000ad4 <HAL_InitTick>:
 8000ad4:	b580      	push	{r7, lr}
 8000ad6:	b082      	sub	sp, #8
 8000ad8:	af00      	add	r7, sp, #0
 8000ada:	6078      	str	r0, [r7, #4]
 8000adc:	4b12      	ldr	r3, [pc, #72]	@ (8000b28 <HAL_InitTick+0x54>)
 8000ade:	681a      	ldr	r2, [r3, #0]
 8000ae0:	4b12      	ldr	r3, [pc, #72]	@ (8000b2c <HAL_InitTick+0x58>)
 8000ae2:	781b      	ldrb	r3, [r3, #0]
 8000ae4:	4619      	mov	r1, r3
 8000ae6:	f44f 737a 	mov.w	r3, #1000	@ 0x3e8
 8000aea:	fbb3 f3f1 	udiv	r3, r3, r1
 8000aee:	fbb2 f3f3 	udiv	r3, r2, r3
 8000af2:	4618      	mov	r0, r3
 8000af4:	f000 f93b 	bl	8000d6e <HAL_SYSTICK_Config>
 8000af8:	4603      	mov	r3, r0
 8000afa:	2b00      	cmp	r3, #0
 8000afc:	d001      	beq.n	8000b02 <HAL_InitTick+0x2e>
 8000afe:	2301      	movs	r3, #1
 8000b00:	e00e      	b.n	8000b20 <HAL_InitTick+0x4c>
 8000b02:	687b      	ldr	r3, [r7, #4]
 8000b04:	2b0f      	cmp	r3, #15
 8000b06:	d80a      	bhi.n	8000b1e <HAL_InitTick+0x4a>
 8000b08:	2200      	movs	r2, #0
 8000b0a:	6879      	ldr	r1, [r7, #4]
 8000b0c:	f04f 30ff 	mov.w	r0, #4294967295	@ 0xffffffff
 8000b10:	f000 f911 	bl	8000d36 <HAL_NVIC_SetPriority>
 8000b14:	4a06      	ldr	r2, [pc, #24]	@ (8000b30 <HAL_InitTick+0x5c>)
 8000b16:	687b      	ldr	r3, [r7, #4]
 8000b18:	6013      	str	r3, [r2, #0]
 8000b1a:	2300      	movs	r3, #0
 8000b1c:	e000      	b.n	8000b20 <HAL_InitTick+0x4c>
 8000b1e:	2301      	movs	r3, #1
 8000b20:	4618      	mov	r0, r3
 8000b22:	3708      	adds	r7, #8
 8000b24:	46bd      	mov	sp, r7
 8000b26:	bd80      	pop	{r7, pc}
 8000b28:	20000000 	.word	0x20000000
 8000b2c:	20000008 	.word	0x20000008
 8000b30:	20000004 	.word	0x20000004

08000b34 <HAL_IncTick>:
 8000b34:	b480      	push	{r7}
 8000b36:	af00      	add	r7, sp, #0
 8000b38:	4b06      	ldr	r3, [pc, #24]	@ (8000b54 <HAL_IncTick+0x20>)
 8000b3a:	781b      	ldrb	r3, [r3, #0]
 8000b3c:	461a      	mov	r2, r3
 8000b3e:	4b06      	ldr	r3, [pc, #24]	@ (8000b58 <HAL_IncTick+0x24>)
 8000b40:	681b      	ldr	r3, [r3, #0]
 8000b42:	4413      	add	r3, r2
 8000b44:	4a04      	ldr	r2, [pc, #16]	@ (8000b58 <HAL_IncTick+0x24>)
 8000b46:	6013      	str	r3, [r2, #0]
 8000b48:	bf00      	nop
 8000b4a:	46bd      	mov	sp, r7
 8000b4c:	f85d 7b04 	ldr.w	r7, [sp], #4
 8000b50:	4770      	bx	lr
 8000b52:	bf00      	nop
 8000b54:	20000008 	.word	0x20000008
 8000b58:	20000028 	.word	0x20000028

08000b5c <HAL_GetTick>:
 8000b5c:	b480      	push	{r7}
 8000b5e:	af00      	add	r7, sp, #0
 8000b60:	4b03      	ldr	r3, [pc, #12]	@ (8000b70 <HAL_GetTick+0x14>)
 8000b62:	681b      	ldr	r3, [r3, #0]
 8000b64:	4618      	mov	r0, r3
 8000b66:	46bd      	mov	sp, r7
 8000b68:	f85d 7b04 	ldr.w	r7, [sp], #4
 8000b6c:	4770      	bx	lr
 8000b6e:	bf00      	nop
 8000b70:	20000028 	.word	0x20000028

08000b74 <HAL_Delay>:
 8000b74:	b580      	push	{r7, lr}
 8000b76:	b084      	sub	sp, #16
 8000b78:	af00      	add	r7, sp, #0
 8000b7a:	6078      	str	r0, [r7, #4]
 8000b7c:	f7ff ffee 	bl	8000b5c <HAL_GetTick>
 8000b80:	60b8      	str	r0, [r7, #8]
 8000b82:	687b      	ldr	r3, [r7, #4]
 8000b84:	60fb      	str	r3, [r7, #12]
 8000b86:	68fb      	ldr	r3, [r7, #12]
 8000b88:	f1b3 3fff 	cmp.w	r3, #4294967295	@ 0xffffffff
 8000b8c:	d005      	beq.n	8000b9a <HAL_Delay+0x26>
 8000b8e:	4b0a      	ldr	r3, [pc, #40]	@ (8000bb8 <HAL_Delay+0x44>)
 8000b90:	781b      	ldrb	r3, [r3, #0]
 8000b92:	461a      	mov	r2, r3
 8000b94:	68fb      	ldr	r3, [r7, #12]
 8000b96:	4413      	add	r3, r2
 8000b98:	60fb      	str	r3, [r7, #12]
 8000b9a:	bf00      	nop
 8000b9c:	f7ff ffde 	bl	8000b5c <HAL_GetTick>
 8000ba0:	4602      	mov	r2, r0
 8000ba2:	68bb      	ldr	r3, [r7, #8]
 8000ba4:	1ad3      	subs	r3, r2, r3
 8000ba6:	68fa      	ldr	r2, [r7, #12]
 8000ba8:	429a      	cmp	r2, r3
 8000baa:	d8f7      	bhi.n	8000b9c <HAL_Delay+0x28>
 8000bac:	bf00      	nop
 8000bae:	bf00      	nop
 8000bb0:	3710      	adds	r7, #16
 8000bb2:	46bd      	mov	sp, r7
 8000bb4:	bd80      	pop	{r7, pc}
 8000bb6:	bf00      	nop
 8000bb8:	20000008 	.word	0x20000008

08000bbc <__NVIC_SetPriorityGrouping>:
 8000bbc:	b480      	push	{r7}
 8000bbe:	b085      	sub	sp, #20
 8000bc0:	af00      	add	r7, sp, #0
 8000bc2:	6078      	str	r0, [r7, #4]
 8000bc4:	687b      	ldr	r3, [r7, #4]
 8000bc6:	f003 0307 	and.w	r3, r3, #7
 8000bca:	60fb      	str	r3, [r7, #12]
 8000bcc:	4b0c      	ldr	r3, [pc, #48]	@ (8000c00 <__NVIC_SetPriorityGrouping+0x44>)
 8000bce:	68db      	ldr	r3, [r3, #12]
 8000bd0:	60bb      	str	r3, [r7, #8]
 8000bd2:	68ba      	ldr	r2, [r7, #8]
 8000bd4:	f64f 03ff 	movw	r3, #63743	@ 0xf8ff
 8000bd8:	4013      	ands	r3, r2
 8000bda:	60bb      	str	r3, [r7, #8]
 8000bdc:	68fb      	ldr	r3, [r7, #12]
 8000bde:	021a      	lsls	r2, r3, #8
 8000be0:	68bb      	ldr	r3, [r7, #8]
 8000be2:	4313      	orrs	r3, r2
 8000be4:	f043 63bf 	orr.w	r3, r3, #100139008	@ 0x5f80000
 8000be8:	f443 3300 	orr.w	r3, r3, #131072	@ 0x20000
 8000bec:	60bb      	str	r3, [r7, #8]
 8000bee:	4a04      	ldr	r2, [pc, #16]	@ (8000c00 <__NVIC_SetPriorityGrouping+0x44>)
 8000bf0:	68bb      	ldr	r3, [r7, #8]
 8000bf2:	60d3      	str	r3, [r2, #12]
 8000bf4:	bf00      	nop
 8000bf6:	3714      	adds	r7, #20
 8000bf8:	46bd      	mov	sp, r7
 8000bfa:	f85d 7b04 	ldr.w	r7, [sp], #4
 8000bfe:	4770      	bx	lr
 8000c00:	e000ed00 	.word	0xe000ed00

08000c04 <__NVIC_GetPriorityGrouping>:
 8000c04:	b480      	push	{r7}
 8000c06:	af00      	add	r7, sp, #0
 8000c08:	4b04      	ldr	r3, [pc, #16]	@ (8000c1c <__NVIC_GetPriorityGrouping+0x18>)
 8000c0a:	68db      	ldr	r3, [r3, #12]
 8000c0c:	0a1b      	lsrs	r3, r3, #8
 8000c0e:	f003 0307 	and.w	r3, r3, #7
 8000c12:	4618      	mov	r0, r3
 8000c14:	46bd      	mov	sp, r7
 8000c16:	f85d 7b04 	ldr.w	r7, [sp], #4
 8000c1a:	4770      	bx	lr
 8000c1c:	e000ed00 	.word	0xe000ed00

08000c20 <__NVIC_SetPriority>:
 8000c20:	b480      	push	{r7}
 8000c22:	b083      	sub	sp, #12
 8000c24:	af00      	add	r7, sp, #0
 8000c26:	4603      	mov	r3, r0
 8000c28:	6039      	str	r1, [r7, #0]
 8000c2a:	71fb      	strb	r3, [r7, #7]
 8000c2c:	f997 3007 	ldrsb.w	r3, [r7, #7]
 8000c30:	2b00      	cmp	r3, #0
 8000c32:	db0a      	blt.n	8000c4a <__NVIC_SetPriority+0x2a>
 8000c34:	683b      	ldr	r3, [r7, #0]
 8000c36:	b2da      	uxtb	r2, r3
 8000c38:	490c      	ldr	r1, [pc, #48]	@ (8000c6c <__NVIC_SetPriority+0x4c>)
 8000c3a:	f997 3007 	ldrsb.w	r3, [r7, #7]
 8000c3e:	0112      	lsls	r2, r2, #4
 8000c40:	b2d2      	uxtb	r2, r2
 8000c42:	440b      	add	r3, r1
 8000c44:	f883 2300 	strb.w	r2, [r3, #768]	@ 0x300
 8000c48:	e00a      	b.n	8000c60 <__NVIC_SetPriority+0x40>
 8000c4a:	683b      	ldr	r3, [r7, #0]
 8000c4c:	b2da      	uxtb	r2, r3
 8000c4e:	4908      	ldr	r1, [pc, #32]	@ (8000c70 <__NVIC_SetPriority+0x50>)
 8000c50:	79fb      	ldrb	r3, [r7, #7]
 8000c52:	f003 030f 	and.w	r3, r3, #15
 8000c56:	3b04      	subs	r3, #4
 8000c58:	0112      	lsls	r2, r2, #4
 8000c5a:	b2d2      	uxtb	r2, r2
 8000c5c:	440b      	add	r3, r1
 8000c5e:	761a      	strb	r2, [r3, #24]
 8000c60:	bf00      	nop
 8000c62:	370c      	adds	r7, #12
 8000c64:	46bd      	mov	sp, r7
 8000c66:	f85d 7b04 	ldr.w	r7, [sp], #4
 8000c6a:	4770      	bx	lr
 8000c6c:	e000e100 	.word	0xe000e100
 8000c70:	e000ed00 	.word	0xe000ed00

08000c74 <NVIC_EncodePriority>:
 8000c74:	b480      	push	{r7}
 8000c76:	b089      	sub	sp, #36	@ 0x24
 8000c78:	af00      	add	r7, sp, #0
 8000c7a:	60f8      	str	r0, [r7, #12]
 8000c7c:	60b9      	str	r1, [r7, #8]
 8000c7e:	607a      	str	r2, [r7, #4]
 8000c80:	68fb      	ldr	r3, [r7, #12]
 8000c82:	f003 0307 	and.w	r3, r3, #7
 8000c86:	61fb      	str	r3, [r7, #28]
 8000c88:	69fb      	ldr	r3, [r7, #28]
 8000c8a:	f1c3 0307 	rsb	r3, r3, #7
 8000c8e:	2b04      	cmp	r3, #4
 8000c90:	bf28      	it	cs
 8000c92:	2304      	movcs	r3, #4
 8000c94:	61bb      	str	r3, [r7, #24]
 8000c96:	69fb      	ldr	r3, [r7, #28]
 8000c98:	3304      	adds	r3, #4
 8000c9a:	2b06      	cmp	r3, #6
 8000c9c:	d902      	bls.n	8000ca4 <NVIC_EncodePriority+0x30>
 8000c9e:	69fb      	ldr	r3, [r7, #28]
 8000ca0:	3b03      	subs	r3, #3
 8000ca2:	e000      	b.n	8000ca6 <NVIC_EncodePriority+0x32>
 8000ca4:	2300      	movs	r3, #0
 8000ca6:	617b      	str	r3, [r7, #20]
 8000ca8:	f04f 32ff 	mov.w	r2, #4294967295	@ 0xffffffff
 8000cac:	69bb      	ldr	r3, [r7, #24]
 8000cae:	fa02 f303 	lsl.w	r3, r2, r3
 8000cb2:	43da      	mvns	r2, r3
 8000cb4:	68bb      	ldr	r3, [r7, #8]
 8000cb6:	401a      	ands	r2, r3
 8000cb8:	697b      	ldr	r3, [r7, #20]
 8000cba:	409a      	lsls	r2, r3
 8000cbc:	f04f 31ff 	mov.w	r1, #4294967295	@ 0xffffffff
 8000cc0:	697b      	ldr	r3, [r7, #20]
 8000cc2:	fa01 f303 	lsl.w	r3, r1, r3
 8000cc6:	43d9      	mvns	r1, r3
 8000cc8:	687b      	ldr	r3, [r7, #4]
 8000cca:	400b      	ands	r3, r1
 8000ccc:	4313      	orrs	r3, r2
 8000cce:	4618      	mov	r0, r3
 8000cd0:	3724      	adds	r7, #36	@ 0x24
 8000cd2:	46bd      	mov	sp, r7
 8000cd4:	f85d 7b04 	ldr.w	r7, [sp], #4
 8000cd8:	4770      	bx	lr
	...

08000cdc <SysTick_Config>:
 8000cdc:	b580      	push	{r7, lr}
 8000cde:	b082      	sub	sp, #8
 8000ce0:	af00      	add	r7, sp, #0
 8000ce2:	6078      	str	r0, [r7, #4]
 8000ce4:	687b      	ldr	r3, [r7, #4]
 8000ce6:	3b01      	subs	r3, #1
 8000ce8:	f1b3 7f80 	cmp.w	r3, #16777216	@ 0x1000000
 8000cec:	d301      	bcc.n	8000cf2 <SysTick_Config+0x16>
 8000cee:	2301      	movs	r3, #1
 8000cf0:	e00f      	b.n	8000d12 <SysTick_Config+0x36>
 8000cf2:	4a0a      	ldr	r2, [pc, #40]	@ (8000d1c <SysTick_Config+0x40>)
 8000cf4:	687b      	ldr	r3, [r7, #4]
 8000cf6:	3b01      	subs	r3, #1
 8000cf8:	6053      	str	r3, [r2, #4]
 8000cfa:	210f      	movs	r1, #15
 8000cfc:	f04f 30ff 	mov.w	r0, #4294967295	@ 0xffffffff
 8000d00:	f7ff ff8e 	bl	8000c20 <__NVIC_SetPriority>
 8000d04:	4b05      	ldr	r3, [pc, #20]	@ (8000d1c <SysTick_Config+0x40>)
 8000d06:	2200      	movs	r2, #0
 8000d08:	609a      	str	r2, [r3, #8]
 8000d0a:	4b04      	ldr	r3, [pc, #16]	@ (8000d1c <SysTick_Config+0x40>)
 8000d0c:	2207      	movs	r2, #7
 8000d0e:	601a      	str	r2, [r3, #0]
 8000d10:	2300      	movs	r3, #0
 8000d12:	4618      	mov	r0, r3
 8000d14:	3708      	adds	r7, #8
 8000d16:	46bd      	mov	sp, r7
 8000d18:	bd80      	pop	{r7, pc}
 8000d1a:	bf00      	nop
 8000d1c:	e000e010 	.word	0xe000e010

08000d20 <HAL_NVIC_SetPriorityGrouping>:
 8000d20:	b580      	push	{r7, lr}
 8000d22:	b082      	sub	sp, #8
 8000d24:	af00      	add	r7, sp, #0
 8000d26:	6078      	str	r0, [r7, #4]
 8000d28:	6878      	ldr	r0, [r7, #4]
 8000d2a:	f7ff ff47 	bl	8000bbc <__NVIC_SetPriorityGrouping>
 8000d2e:	bf00      	nop
 8000d30:	3708      	adds	r7, #8
 8000d32:	46bd      	mov	sp, r7
 8000d34:	bd80      	pop	{r7, pc}

08000d36 <HAL_NVIC_SetPriority>:
 8000d36:	b580      	push	{r7, lr}
 8000d38:	b086      	sub	sp, #24
 8000d3a:	af00      	add	r7, sp, #0
 8000d3c:	4603      	mov	r3, r0
 8000d3e:	60b9      	str	r1, [r7, #8]
 8000d40:	607a      	str	r2, [r7, #4]
 8000d42:	73fb      	strb	r3, [r7, #15]
 8000d44:	2300      	movs	r3, #0
 8000d46:	617b      	str	r3, [r7, #20]
 8000d48:	f7ff ff5c 	bl	8000c04 <__NVIC_GetPriorityGrouping>
 8000d4c:	6178      	str	r0, [r7, #20]
 8000d4e:	687a      	ldr	r2, [r7, #4]
 8000d50:	68b9      	ldr	r1, [r7, #8]
 8000d52:	6978      	ldr	r0, [r7, #20]
 8000d54:	f7ff ff8e 	bl	8000c74 <NVIC_EncodePriority>
 8000d58:	4602      	mov	r2, r0
 8000d5a:	f997 300f 	ldrsb.w	r3, [r7, #15]
 8000d5e:	4611      	mov	r1, r2
 8000d60:	4618      	mov	r0, r3
 8000d62:	f7ff ff5d 	bl	8000c20 <__NVIC_SetPriority>
 8000d66:	bf00      	nop
 8000d68:	3718      	adds	r7, #24
 8000d6a:	46bd      	mov	sp, r7
 8000d6c:	bd80      	pop	{r7, pc}

08000d6e <HAL_SYSTICK_Config>:
 8000d6e:	b580      	push	{r7, lr}
 8000d70:	b082      	sub	sp, #8
 8000d72:	af00      	add	r7, sp, #0
 8000d74:	6078      	str	r0, [r7, #4]
 8000d76:	6878      	ldr	r0, [r7, #4]
 8000d78:	f7ff ffb0 	bl	8000cdc <SysTick_Config>
 8000d7c:	4603      	mov	r3, r0
 8000d7e:	4618      	mov	r0, r3
 8000d80:	3708      	adds	r7, #8
 8000d82:	46bd      	mov	sp, r7
 8000d84:	bd80      	pop	{r7, pc}
	...

08000d88 <__libc_init_array>:
 8000d88:	b570      	push	{r4, r5, r6, lr}
 8000d8a:	4d0d      	ldr	r5, [pc, #52]	@ (8000dc0 <__libc_init_array+0x38>)
 8000d8c:	4c0d      	ldr	r4, [pc, #52]	@ (8000dc4 <__libc_init_array+0x3c>)
 8000d8e:	1b64      	subs	r4, r4, r5
 8000d90:	10a4      	asrs	r4, r4, #2
 8000d92:	2600      	movs	r6, #0
 8000d94:	42a6      	cmp	r6, r4
 8000d96:	d109      	bne.n	8000dac <__libc_init_array+0x24>
 8000d98:	4d0b      	ldr	r5, [pc, #44]	@ (8000dc8 <__libc_init_array+0x40>)
 8000d9a:	4c0c      	ldr	r4, [pc, #48]	@ (8000dcc <__libc_init_array+0x44>)
 8000d9c:	f000 f818 	bl	8000dd0 <_init>
 8000da0:	1b64      	subs	r4, r4, r5
 8000da2:	10a4      	asrs	r4, r4, #2
 8000da4:	2600      	movs	r6, #0
 8000da6:	42a6      	cmp	r6, r4
 8000da8:	d105      	bne.n	8000db6 <__libc_init_array+0x2e>
 8000daa:	bd70      	pop	{r4, r5, r6, pc}
 8000dac:	f855 3b04 	ldr.w	r3, [r5], #4
 8000db0:	4798      	blx	r3
 8000db2:	3601      	adds	r6, #1
 8000db4:	e7ee      	b.n	8000d94 <__libc_init_array+0xc>
 8000db6:	f855 3b04 	ldr.w	r3, [r5], #4
 8000dba:	4798      	blx	r3
 8000dbc:	3601      	adds	r6, #1
 8000dbe:	e7f2      	b.n	8000da6 <__libc_init_array+0x1e>
 8000dc0:	08000e40 	.word	0x08000e40
 8000dc4:	08000e40 	.word	0x08000e40
 8000dc8:	08000e40 	.word	0x08000e40
 8000dcc:	08000e44 	.word	0x08000e44

08000dd0 <_init>:
 8000dd0:	b5f8      	push	{r3, r4, r5, r6, r7, lr}
 8000dd2:	bf00      	nop
 8000dd4:	bcf8      	pop	{r3, r4, r5, r6, r7}
 8000dd6:	bc08      	pop	{r3}
 8000dd8:	469e      	mov	lr, r3
 8000dda:	4770      	bx	lr

08000ddc <_fini>:
 8000ddc:	b5f8      	push	{r3, r4, r5, r6, r7, lr}
 8000dde:	bf00      	nop
 8000de0:	bcf8      	pop	{r3, r4, r5, r6, r7}
 8000de2:	bc08      	pop	{r3}
 8000de4:	469e      	mov	lr, r3
 8000de6:	4770      	bx	lr
